target datalayout = "e-m:e-p270:32:32-p271:32:32-p272:64:64-i64:64-i128:128-f80:128-n8:16:32:64-S128"
target triple = "x86_64-pc-linux-gnu"

@_ZTI17DeadlyImportError = linkonce_odr constant { ptr, ptr, ptr } { ptr getelementptr inbounds (ptr, ptr @_ZTVN10__cxxabiv120__si_class_type_infoE, i64 2), ptr @_ZTS17DeadlyImportError, ptr @_ZTI15DeadlyErrorBase }, comdat, align 8
@.str.4 = private unnamed_addr constant [3 x i8] c"\22.\00", align 1
@.str.11 = private unnamed_addr constant [27 x i8] c"Not found node with name \22\00", align 1

; Function Attrs: mustprogress noreturn uwtable
define hidden void @_ZNK6Assimp11AMFImporter17Throw_ID_NotFoundERKNSt7__cxx1112basic_stringIcSt11char_traitsIcESaIcEEE(ptr noundef nonnull align 8 dereferenceable(224) %0, ptr noundef nonnull align 8 dereferenceable(32) %1) #9 align 2 personality ptr @__gxx_personality_v0 {
  %3 = alloca ptr, align 8
  %4 = alloca ptr, align 8
  %5 = alloca ptr, align 8
  %6 = alloca i32, align 4
  store ptr %0, ptr %3, align 8
  store ptr %1, ptr %4, align 8
  %7 = call ptr @__cxa_allocate_exception(i64 16) #4
  %8 = load ptr, ptr %4, align 8
  invoke void @_ZN17DeadlyImportErrorC2IJRA27_KcRKNSt7__cxx1112basic_stringIcSt11char_traitsIcESaIcEEERA3_S1_EEEDpOT_(ptr noundef nonnull align 8 dereferenceable(16) %7, ptr noundef nonnull align 1 dereferenceable(27) @.str.11, ptr noundef nonnull align 8 dereferenceable(32) %8, ptr noundef nonnull align 1 dereferenceable(3) @.str.4)
          to label %9 unwind label %10

9:                                                ; preds = %2
  call void @__cxa_throw(ptr %7, ptr @_ZTI17DeadlyImportError, ptr @_ZNSt13runtime_errorD2Ev) #22
  unreachable

10:                                               ; preds = %2
  %11 = landingpad { ptr, i32 }
          cleanup
  %12 = extractvalue { ptr, i32 } %11, 0
  store ptr %12, ptr %5, align 8
  %13 = extractvalue { ptr, i32 } %11, 1
  store i32 %13, ptr %6, align 4
  call void @__cxa_free_exception(ptr %7) #4
  br label %14

14:                                               ; preds = %10
  %15 = load ptr, ptr %5, align 8
  %16 = load i32, ptr %6, align 4
  %17 = insertvalue { ptr, i32 } poison, ptr %15, 0
  %18 = insertvalue { ptr, i32 } %17, i32 %16, 1
  resume { ptr, i32 } %18
}