; Function Attrs: mustprogress noreturn uwtable
define hidden void @_ZNK6Assimp11AMFImporter17Throw_ID_NotFoundERKNSt7__cxx1112basic_stringIcSt11char_traitsIcESaIcEEE(ptr noundef nonnull readnone align 8 captures(none) dereferenceable(224) %0, ptr noundef nonnull align 8 dereferenceable(32) %1) local_unnamed_addr #8 align 2 personality ptr @__gxx_personality_v0 {
  %3 = tail call ptr @__cxa_allocate_exception(i64 16) #31
  invoke void @_ZN17DeadlyImportErrorC2IJRA27_KcRKNSt7__cxx1112basic_stringIcSt11char_traitsIcESaIcEEERA3_S1_EEEDpOT_(ptr noundef nonnull align 8 dereferenceable(16) %3, ptr noundef nonnull align 1 dereferenceable(27) @.str.11, ptr noundef nonnull align 8 dereferenceable(32) %1, ptr noundef nonnull align 1 dereferenceable(3) @.str.4)
          to label %4 unwind label %5

4:                                                ; preds = %2
  tail call void @__cxa_throw(ptr nonnull %3, ptr nonnull @_ZTI17DeadlyImportError, ptr nonnull @_ZNSt13runtime_errorD2Ev) #33
  unreachable

5:                                                ; preds = %2
  %6 = landingpad { ptr, i32 }
          cleanup
  tail call void @__cxa_free_exception(ptr nonnull %3) #31
  resume { ptr, i32 } %6
}